target datalayout = "e-m:e-p270:32:32-p271:32:32-p272:64:64-i64:64-i128:128-f80:128-n8:16:32:64-S128"
target triple = "x86_64-pc-linux-gnu"

%struct._GC_arrays = type { i64, i64, i64, ptr, i64, i64, i64, i64, i64, i64, i64, i64, i64, i64, ptr, ptr, ptr, ptr, ptr, ptr, ptr, ptr, i32, i32, i32, i64, i64, i64, i64, i64, ptr, ptr, ptr, i64, i64, i32, i64, i64, ptr, i64, %struct.dl_hashtbl_s, %struct.dl_hashtbl_s, %struct.fnlz_roots_s, i32, ptr, i64, i64, i32, i32, i64, i64, i64, ptr, [64 x ptr], [8 x i8], [64 x ptr], [129 x ptr], [129 x ptr], [129 x ptr], [129 x ptr], [2049 x i64], [129 x ptr], [4096 x i8], [4096 x i64], [4096 x i64], ptr, [2048 x %struct.roots], [512 x %struct.exclusion], [2048 x ptr] }
%struct.dl_hashtbl_s = type { ptr, i64, i32 }
%struct.fnlz_roots_s = type { ptr, ptr }
%struct.roots = type { ptr, ptr, ptr, i32 }
%struct.exclusion = type { ptr, ptr }

@GC_arrays = global %struct._GC_arrays zeroinitializer, align 8
@GC_n_mark_procs = internal global i32 8, align 4
@GC_on_abort = global ptr @GC_default_on_abort, align 8
@.str.96 = private unnamed_addr constant [25 x i8] c"Too many mark procedures\00", align 1

; Function Attrs: nounwind uwtable
define i32 @GC_new_proc_inner(ptr noundef %0) #0 {
  %2 = alloca ptr, align 8
  %3 = alloca i32, align 4
  store ptr %0, ptr %2, align 8
  %4 = load i32, ptr @GC_n_mark_procs, align 4
  store i32 %4, ptr %3, align 4
  %5 = load i32, ptr %3, align 4
  %6 = icmp ult i32 %5, 64
  br i1 %6, label %7, label %15

7:                                                ; preds = %1
  %8 = load i32, ptr @GC_n_mark_procs, align 4
  %9 = add i32 %8, 1
  store i32 %9, ptr @GC_n_mark_procs, align 4
  %10 = load ptr, ptr %2, align 8
  %11 = load i32, ptr %3, align 4
  %12 = zext i32 %11 to i64
  %13 = getelementptr inbounds %struct._GC_arrays, ptr @GC_arrays, i32 0, i32 53
  %14 = getelementptr inbounds [64 x ptr], ptr %13, i64 0, i64 %12
  store ptr %10, ptr %14, align 8
  br label %17

15:                                               ; preds = %1
  %16 = load ptr, ptr @GC_on_abort, align 8
  call void %16(ptr noundef @.str.96)
  call void @abort() #20
  unreachable

17:                                               ; preds = %7
  %18 = load i32, ptr %3, align 4
  ret i32 %18
}