; Function Attrs: nounwind uwtable
define range(i32 0, 64) i32 @GC_new_proc_inner(ptr noundef %0) local_unnamed_addr #1 {
  %2 = load i32, ptr @GC_n_mark_procs, align 4
  %3 = icmp ult i32 %2, 64
  br i1 %3, label %4, label %8

4:                                                ; preds = %1
  %5 = add nuw nsw i32 %2, 1
  store i32 %5, ptr @GC_n_mark_procs, align 4
  %6 = zext nneg i32 %2 to i64
  %7 = getelementptr inbounds nuw [64 x ptr], ptr getelementptr inbounds nuw (i8, ptr @GC_arrays, i64 448), i64 0, i64 %6
  store ptr %0, ptr %7, align 8
  ret i32 %2

8:                                                ; preds = %1
  %9 = load ptr, ptr @GC_on_abort, align 8
  tail call void %9(ptr noundef nonnull @.str.96) #41
  tail call void @abort() #47
  unreachable
}